target datalayout = "e-m:e-p270:32:32-p271:32:32-p272:64:64-i64:64-i128:128-f80:128-n8:16:32:64-S128"
target triple = "x86_64-pc-linux-gnu"

%struct.Vec_Int_t_ = type { i32, i32, ptr }
%struct.Gia_Man_t_ = type { ptr, ptr, i32, i32, i32, i32, ptr, ptr, i32, i32, i32, ptr, ptr, %struct.Vec_Int_t_, %struct.Vec_Int_t_, i32, i32, i32, %struct.Vec_Int_t_, ptr, ptr, ptr, i32, i32, i32, i32, ptr, ptr, ptr, ptr, ptr, i32, i32, ptr, i32, ptr, ptr, ptr, ptr, ptr, ptr, ptr, ptr, ptr, ptr, ptr, ptr, ptr, ptr, ptr, ptr, ptr, ptr, %struct.Vec_Int_t_, %struct.Vec_Int_t_, ptr, ptr, ptr, ptr, ptr, ptr, ptr, ptr, ptr, ptr, ptr, ptr, ptr, ptr, ptr, ptr, ptr, ptr, ptr, ptr, ptr, i32, float, float, ptr, ptr, i32, ptr, ptr, ptr, ptr, ptr, ptr, ptr, ptr, ptr, ptr, ptr, ptr, ptr, ptr, ptr, i64, i64, ptr, ptr, i32, i32, i32, i32, i32, i32, i32, i32, i32, i32, i32, i32, ptr, ptr, ptr, ptr, ptr, ptr, ptr, ptr, i32, i32, i32, ptr, i32, i32, ptr, ptr, ptr, ptr, ptr, ptr, i32, i32, ptr, %struct.Vec_Int_t_, %struct.Vec_Int_t_, %struct.Vec_Int_t_, ptr, ptr, ptr }
%struct.Abs_Par_t_ = type { i32, i32, i32, i32, i32, i32, i32, i32, i32, i32, i32, i32, i32, i32, i32, i32, i32, i32, i32, i32, i32, i32, i32, i32, i32, ptr, i32, i32, i32, i32, i32, i32 }

@.str.2 = private unnamed_addr constant [18 x i8] c"stats_gla%s%s.txt\00", align 1
@.str.3 = private unnamed_addr constant [2 x i8] c"n\00", align 1
@.str.4 = private unnamed_addr constant [1 x i8] zeroinitializer, align 1
@.str.5 = private unnamed_addr constant [2 x i8] c"p\00", align 1
@.str.6 = private unnamed_addr constant [3 x i8] c"a+\00", align 1
@.str.7 = private unnamed_addr constant [36 x i8] c"%s pi=%d ff=%d and=%d mem=%d bmc=%d\00", align 1
@.str.8 = private unnamed_addr constant [14 x i8] c" ff=%d and=%d\00", align 1
@.str.9 = private unnamed_addr constant [2 x i8] c"\0A\00", align 1

; Function Attrs: nounwind uwtable
define internal i32 @Vec_IntSize(ptr noundef %0) #0 {
  %2 = alloca ptr, align 8
  store ptr %0, ptr %2, align 8
  %3 = load ptr, ptr %2, align 8
  %4 = getelementptr inbounds %struct.Vec_Int_t_, ptr %3, i32 0, i32 1
  %5 = load i32, ptr %4, align 4
  ret i32 %5
}

; Function Attrs: nounwind uwtable
define internal i32 @Gia_ManAndNum(ptr noundef %0) #0 {
  %2 = alloca ptr, align 8
  store ptr %0, ptr %2, align 8
  %3 = load ptr, ptr %2, align 8
  %4 = getelementptr inbounds %struct.Gia_Man_t_, ptr %3, i32 0, i32 4
  %5 = load i32, ptr %4, align 8
  %6 = load ptr, ptr %2, align 8
  %7 = getelementptr inbounds %struct.Gia_Man_t_, ptr %6, i32 0, i32 11
  %8 = load ptr, ptr %7, align 8
  %9 = call i32 @Vec_IntSize(ptr noundef %8)
  %10 = sub nsw i32 %5, %9
  %11 = load ptr, ptr %2, align 8
  %12 = getelementptr inbounds %struct.Gia_Man_t_, ptr %11, i32 0, i32 12
  %13 = load ptr, ptr %12, align 8
  %14 = call i32 @Vec_IntSize(ptr noundef %13)
  %15 = sub nsw i32 %10, %14
  %16 = sub nsw i32 %15, 1
  ret i32 %16
}

; Function Attrs: nounwind uwtable
define internal i32 @Gia_ManRegNum(ptr noundef %0) #0 {
  %2 = alloca ptr, align 8
  store ptr %0, ptr %2, align 8
  %3 = load ptr, ptr %2, align 8
  %4 = getelementptr inbounds %struct.Gia_Man_t_, ptr %3, i32 0, i32 2
  %5 = load i32, ptr %4, align 8
  ret i32 %5
}

; Function Attrs: nounwind uwtable
define internal i32 @Gia_ManPiNum(ptr noundef %0) #0 {
  %2 = alloca ptr, align 8
  store ptr %0, ptr %2, align 8
  %3 = load ptr, ptr %2, align 8
  %4 = getelementptr inbounds %struct.Gia_Man_t_, ptr %3, i32 0, i32 11
  %5 = load ptr, ptr %4, align 8
  %6 = call i32 @Vec_IntSize(ptr noundef %5)
  %7 = load ptr, ptr %2, align 8
  %8 = getelementptr inbounds %struct.Gia_Man_t_, ptr %7, i32 0, i32 2
  %9 = load i32, ptr %8, align 8
  %10 = sub nsw i32 %6, %9
  ret i32 %10
}

; Function Attrs: nounwind uwtable
define void @Ga2_ManDumpStats(ptr noundef %0, ptr noundef %1, ptr noundef %2, i32 noundef %3, i32 noundef %4) #0 {
  %6 = alloca ptr, align 8
  %7 = alloca ptr, align 8
  %8 = alloca ptr, align 8
  %9 = alloca i32, align 4
  %10 = alloca i32, align 4
  %11 = alloca ptr, align 8
  %12 = alloca [32 x i8], align 16
  store ptr %0, ptr %6, align 8
  store ptr %1, ptr %7, align 8
  store ptr %2, ptr %8, align 8
  store i32 %3, ptr %9, align 4
  store i32 %4, ptr %10, align 4
  %13 = getelementptr inbounds [32 x i8], ptr %12, i64 0, i64 0
  %14 = load i32, ptr %10, align 4
  %15 = icmp ne i32 %14, 0
  %16 = select i1 %15, ptr @.str.3, ptr @.str.4
  %17 = load ptr, ptr %7, align 8
  %18 = getelementptr inbounds %struct.Abs_Par_t_, ptr %17, i32 0, i32 20
  %19 = load i32, ptr %18, align 8
  %20 = icmp ne i32 %19, 0
  %21 = select i1 %20, ptr @.str.5, ptr @.str.4
  %22 = call i32 (ptr, ptr, ...) @sprintf(ptr noundef %13, ptr noundef @.str.2, ptr noundef %16, ptr noundef %21) #12
  %23 = getelementptr inbounds [32 x i8], ptr %12, i64 0, i64 0
  %24 = call noalias ptr @fopen(ptr noundef %23, ptr noundef @.str.6)
  store ptr %24, ptr %11, align 8
  %25 = load ptr, ptr %11, align 8
  %26 = load ptr, ptr %6, align 8
  %27 = getelementptr inbounds %struct.Gia_Man_t_, ptr %26, i32 0, i32 0
  %28 = load ptr, ptr %27, align 8
  %29 = load ptr, ptr %6, align 8
  %30 = call i32 @Gia_ManPiNum(ptr noundef %29)
  %31 = load ptr, ptr %6, align 8
  %32 = call i32 @Gia_ManRegNum(ptr noundef %31)
  %33 = load ptr, ptr %6, align 8
  %34 = call i32 @Gia_ManAndNum(ptr noundef %33)
  %35 = load ptr, ptr %8, align 8
  %36 = call double @sat_solver2_memory_proof(ptr noundef %35)
  %37 = fdiv double %36, 0x4130000000000000
  %38 = fadd double 1.000000e+00, %37
  %39 = fptosi double %38 to i32
  %40 = load i32, ptr %9, align 4
  %41 = call i32 (ptr, ptr, ...) @fprintf(ptr noundef %25, ptr noundef @.str.7, ptr noundef %28, i32 noundef %30, i32 noundef %32, i32 noundef %34, i32 noundef %39, i32 noundef %40) #12
  %42 = load ptr, ptr %6, align 8
  %43 = getelementptr inbounds %struct.Gia_Man_t_, ptr %42, i32 0, i32 58
  %44 = load ptr, ptr %43, align 8
  %45 = icmp ne ptr %44, null
  br i1 %45, label %46, label %59

46:                                               ; preds = %5
  %47 = load ptr, ptr %11, align 8
  %48 = load ptr, ptr %6, align 8
  %49 = load ptr, ptr %6, align 8
  %50 = getelementptr inbounds %struct.Gia_Man_t_, ptr %49, i32 0, i32 58
  %51 = load ptr, ptr %50, align 8
  %52 = call i32 @Gia_GlaCountFlops(ptr noundef %48, ptr noundef %51)
  %53 = load ptr, ptr %6, align 8
  %54 = load ptr, ptr %6, align 8
  %55 = getelementptr inbounds %struct.Gia_Man_t_, ptr %54, i32 0, i32 58
  %56 = load ptr, ptr %55, align 8
  %57 = call i32 @Gia_GlaCountNodes(ptr noundef %53, ptr noundef %56)
  %58 = call i32 (ptr, ptr, ...) @fprintf(ptr noundef %47, ptr noundef @.str.8, i32 noundef %52, i32 noundef %57) #12
  br label %59

59:                                               ; preds = %46, %5
  %60 = load ptr, ptr %11, align 8
  %61 = call i32 (ptr, ptr, ...) @fprintf(ptr noundef %60, ptr noundef @.str.9) #12
  %62 = load ptr, ptr %11, align 8
  %63 = call i32 @fclose(ptr noundef %62)
  ret void
}