; Function Attrs: nounwind uwtable
define void @Ga2_ManDumpStats(ptr noundef %0, ptr noundef readonly captures(none) %1, ptr noundef %2, i32 noundef %3, i32 noundef %4) local_unnamed_addr #4 {
  %6 = alloca [32 x i8], align 16
  %.not = icmp eq i32 %4, 0
  %7 = select i1 %.not, ptr @.str.4, ptr @.str.3
  %8 = getelementptr inbounds nuw i8, ptr %1, i64 80
  %9 = load i32, ptr %8, align 8
  %.not16 = icmp eq i32 %9, 0
  %10 = select i1 %.not16, ptr @.str.4, ptr @.str.5
  %11 = call i32 (ptr, ptr, ...) @sprintf(ptr noundef nonnull dereferenceable(1) %6, ptr noundef nonnull dereferenceable(1) @.str.2, ptr noundef nonnull %7, ptr noundef nonnull %10) #28
  %12 = call noalias ptr @fopen(ptr noundef nonnull %6, ptr noundef nonnull @.str.6)
  %13 = load ptr, ptr %0, align 8
  %14 = getelementptr i8, ptr %0, i64 16
  %.val18 = load i32, ptr %14, align 8
  %15 = getelementptr i8, ptr %0, i64 64
  %.val19 = load ptr, ptr %15, align 8
  %16 = getelementptr i8, ptr %.val19, i64 4
  %.val19.val = load i32, ptr %16, align 4
  %17 = sub nsw i32 %.val19.val, %.val18
  %18 = getelementptr inbounds nuw i8, ptr %0, i64 24
  %19 = load i32, ptr %18, align 8
  %20 = getelementptr inbounds nuw i8, ptr %0, i64 72
  %21 = load ptr, ptr %20, align 8
  %22 = getelementptr i8, ptr %21, i64 4
  %.val.i = load i32, ptr %22, align 4
  %23 = add i32 %.val.i, %.val19.val
  %24 = xor i32 %23, -1
  %25 = add i32 %19, %24
  %26 = tail call double @sat_solver2_memory_proof(ptr noundef %2) #28
  %27 = fmul double %26, 0x3EB0000000000000
  %28 = fadd double %27, 1.000000e+00
  %29 = fptosi double %28 to i32
  %30 = tail call i32 (ptr, ptr, ...) @fprintf(ptr noundef %12, ptr noundef nonnull @.str.7, ptr noundef %13, i32 noundef %17, i32 noundef %.val18, i32 noundef %25, i32 noundef %29, i32 noundef %3) #28
  %31 = getelementptr inbounds nuw i8, ptr %0, i64 448
  %32 = load ptr, ptr %31, align 8
  %.not17 = icmp eq ptr %32, null
  br i1 %.not17, label %38, label %33

33:                                               ; preds = %5
  %34 = tail call i32 @Gia_GlaCountFlops(ptr noundef nonnull %0, ptr noundef nonnull %32) #28
  %35 = load ptr, ptr %31, align 8
  %36 = tail call i32 @Gia_GlaCountNodes(ptr noundef nonnull %0, ptr noundef %35) #28
  %37 = tail call i32 (ptr, ptr, ...) @fprintf(ptr noundef %12, ptr noundef nonnull @.str.8, i32 noundef %34, i32 noundef %36) #28
  br label %38

38:                                               ; preds = %33, %5
  %fputc = tail call i32 @fputc(i32 10, ptr %12)
  %39 = tail call i32 @fclose(ptr noundef %12)
  ret void
}